target datalayout = "e-m:e-p270:32:32-p271:32:32-p272:64:64-i64:64-i128:128-f80:128-n8:16:32:64-S128"
target triple = "x86_64-pc-linux-gnu"

; Function Attrs: nounwind uwtable
define internal void @output_memattrs(ptr noundef %0) #0 {
  %2 = alloca ptr, align 8
  %3 = alloca i32, align 4
  store ptr %0, ptr %2, align 8, !tbaa !4
  call void @llvm.lifetime.start.p0(i64 4, ptr %3) #12
  %4 = load ptr, ptr %2, align 8, !tbaa !4
  %5 = call i32 @output_memattr(ptr noundef %4, i32 noundef 0)
  %6 = load ptr, ptr %2, align 8, !tbaa !4
  %7 = call i32 @output_memattr(ptr noundef %6, i32 noundef 1)
  %8 = load ptr, ptr %2, align 8, !tbaa !4
  %9 = call i32 @output_memattr(ptr noundef %8, i32 noundef 2)
  %10 = load ptr, ptr %2, align 8, !tbaa !4
  %11 = call i32 @output_memattr(ptr noundef %10, i32 noundef 4)
  %12 = load ptr, ptr %2, align 8, !tbaa !4
  %13 = call i32 @output_memattr(ptr noundef %12, i32 noundef 5)
  %14 = load ptr, ptr %2, align 8, !tbaa !4
  %15 = call i32 @output_memattr(ptr noundef %14, i32 noundef 3)
  %16 = load ptr, ptr %2, align 8, !tbaa !4
  %17 = call i32 @output_memattr(ptr noundef %16, i32 noundef 6)
  %18 = load ptr, ptr %2, align 8, !tbaa !4
  %19 = call i32 @output_memattr(ptr noundef %18, i32 noundef 7)
  store i32 8, ptr %3, align 4, !tbaa !25
  br label %20

20:                                               ; preds = %27, %1
  %21 = load ptr, ptr %2, align 8, !tbaa !4
  %22 = load i32, ptr %3, align 4, !tbaa !25
  %23 = call i32 @output_memattr(ptr noundef %21, i32 noundef %22)
  %24 = icmp slt i32 %23, 0
  br i1 %24, label %25, label %26

25:                                               ; preds = %20
  br label %30

26:                                               ; preds = %20
  br label %27

27:                                               ; preds = %26
  %28 = load i32, ptr %3, align 4, !tbaa !25
  %29 = add i32 %28, 1
  store i32 %29, ptr %3, align 4, !tbaa !25
  br label %20

30:                                               ; preds = %25
  call void @llvm.lifetime.end.p0(i64 4, ptr %3) #12
  ret void
}