; Function Attrs: nounwind uwtable
define internal fastcc void @output_memattrs(ptr noundef readonly captures(none) %0) unnamed_addr #0 {
  %2 = tail call fastcc i32 @output_memattr(ptr noundef %0, i32 noundef 0)
  %3 = tail call fastcc i32 @output_memattr(ptr noundef %0, i32 noundef 1)
  %4 = tail call fastcc i32 @output_memattr(ptr noundef %0, i32 noundef 2)
  %5 = tail call fastcc i32 @output_memattr(ptr noundef %0, i32 noundef 4)
  %6 = tail call fastcc i32 @output_memattr(ptr noundef %0, i32 noundef 5)
  %7 = tail call fastcc i32 @output_memattr(ptr noundef %0, i32 noundef 3)
  %8 = tail call fastcc i32 @output_memattr(ptr noundef %0, i32 noundef 6)
  %9 = tail call fastcc i32 @output_memattr(ptr noundef %0, i32 noundef 7)
  br label %10

10:                                               ; preds = %10, %1
  %.0 = phi i32 [ 8, %1 ], [ %13, %10 ]
  %11 = tail call fastcc i32 @output_memattr(ptr noundef %0, i32 noundef %.0)
  %12 = icmp slt i32 %11, 0
  %13 = add i32 %.0, 1
  br i1 %12, label %14, label %10

14:                                               ; preds = %10
  ret void
}